; ModuleID = 'source-C-CXX/59/1279.c'
source_filename = "source-C-CXX/59/1279.c"
target datalayout = "e-m:e-p270:32:32-p271:32:32-p272:64:64-i64:64-f80:128-n8:16:32:64-S128"
target triple = "x86_64-pc-linux-gnu"

@.str = private unnamed_addr constant [3 x i8] c"%d\00", align 1
@.str.1 = private unnamed_addr constant [6 x i8] c"empty\00", align 1
@.str.2 = private unnamed_addr constant [7 x i8] c"%d %d\0A\00", align 1

; Function Attrs: nofree nounwind sspstrong uwtable
define dso_local i32 @main() local_unnamed_addr #0 {
  %1 = alloca i32, align 4
  %2 = bitcast i32* %1 to i8*
  call void @llvm.lifetime.start.p0i8(i64 4, i8* nonnull %2) #3
  %3 = call i32 (i8*, ...) @__isoc99_scanf(i8* getelementptr inbounds ([3 x i8], [3 x i8]* @.str, i64 0, i64 0), i32* nonnull %1)
  %4 = load i32, i32* %1, align 4, !tbaa !5
  %5 = add i32 %4, -1
  %6 = icmp ult i32 %5, 4
  br i1 %6, label %9, label %7

7:                                                ; preds = %0
  %8 = icmp slt i32 %4, 5
  br i1 %8, label %45, label %11

9:                                                ; preds = %0
  %10 = call i32 (i8*, ...) @printf(i8* nonnull dereferenceable(1) getelementptr inbounds ([6 x i8], [6 x i8]* @.str.1, i64 0, i64 0))
  br label %45

11:                                               ; preds = %7, %39
  %12 = phi i32 [ %40, %39 ], [ %4, %7 ]
  %13 = phi i32 [ %44, %39 ], [ 5, %7 ]
  %14 = phi i32 [ %41, %39 ], [ 3, %7 ]
  br label %15

15:                                               ; preds = %11, %19
  %16 = phi i32 [ %20, %19 ], [ 2, %11 ]
  %17 = urem i32 %14, %16
  %18 = icmp eq i32 %17, 0
  br i1 %18, label %22, label %19

19:                                               ; preds = %15
  %20 = add nuw nsw i32 %16, 1
  %21 = icmp eq i32 %20, %14
  br i1 %21, label %24, label %15, !llvm.loop !9

22:                                               ; preds = %15
  %23 = icmp eq i32 %16, %14
  br i1 %23, label %24, label %39

24:                                               ; preds = %19, %22
  %25 = add nuw nsw i32 %14, 2
  br label %26

26:                                               ; preds = %24, %30
  %27 = phi i32 [ 2, %24 ], [ %31, %30 ]
  %28 = urem i32 %25, %27
  %29 = icmp eq i32 %28, 0
  br i1 %29, label %33, label %30

30:                                               ; preds = %26
  %31 = add nuw i32 %27, 1
  %32 = icmp eq i32 %31, %13
  br i1 %32, label %33, label %26, !llvm.loop !11

33:                                               ; preds = %26, %30
  %34 = phi i32 [ %27, %26 ], [ %13, %30 ]
  %35 = icmp eq i32 %34, %25
  br i1 %35, label %36, label %39

36:                                               ; preds = %33
  %37 = call i32 (i8*, ...) @printf(i8* nonnull dereferenceable(1) getelementptr inbounds ([7 x i8], [7 x i8]* @.str.2, i64 0, i64 0), i32 %14, i32 %25)
  %38 = load i32, i32* %1, align 4, !tbaa !5
  br label %39

39:                                               ; preds = %22, %36, %33
  %40 = phi i32 [ %12, %22 ], [ %38, %36 ], [ %12, %33 ]
  %41 = add nuw nsw i32 %14, 1
  %42 = add nsw i32 %40, -2
  %43 = icmp slt i32 %14, %42
  %44 = add nuw i32 %13, 1
  br i1 %43, label %11, label %45, !llvm.loop !12

45:                                               ; preds = %39, %7, %9
  call void @llvm.lifetime.end.p0i8(i64 4, i8* nonnull %2) #3
  ret i32 0
}

; Function Attrs: argmemonly mustprogress nofree nosync nounwind willreturn
declare void @llvm.lifetime.start.p0i8(i64 immarg, i8* nocapture) #1

; Function Attrs: nofree nounwind
declare noundef i32 @__isoc99_scanf(i8* nocapture noundef readonly, ...) local_unnamed_addr #2

; Function Attrs: nofree nounwind
declare noundef i32 @printf(i8* nocapture noundef readonly, ...) local_unnamed_addr #2

; Function Attrs: argmemonly mustprogress nofree nosync nounwind willreturn
declare void @llvm.lifetime.end.p0i8(i64 immarg, i8* nocapture) #1


!llvm.module.flags = !{!0, !1, !2, !3}
!llvm.ident = !{!4}

!0 = !{i32 1, !"wchar_size", i32 4}
!1 = !{i32 7, !"PIC Level", i32 2}
!2 = !{i32 7, !"PIE Level", i32 2}
!3 = !{i32 7, !"uwtable", i32 1}
!4 = !{!"clang version 13.0.0"}
!5 = !{!6, !6, i64 0}
!6 = !{!"int", !7, i64 0}
!7 = !{!"omnipotent char", !8, i64 0}
!8 = !{!"Simple C/C++ TBAA"}
!9 = distinct !{!9, !10}
!10 = !{!"llvm.loop.mustprogress"}
!11 = distinct !{!11, !10}
!12 = distinct !{!12, !10}
